00001  0000             ; 10 SYS (2304)
00002  0001             
00003  0001             *=$0801
00004  0801             
00005  0801  0E 08 0A              BYTE    $0E, $08, $0A, $00, $9E, $20, $28,  $32, $33, $30, $34, $29, $00, $00, $00
00006  0810             
00007  0810             
00008  0810             *=$0900
00009  0900             ; FRONT_EYE_PIXELS=$2E80
00010  0900             ; LEFT_EYE_PIXLES=$2F00
00011  0900             ; RIGHT_EYE_PIXLES=$3A00
00012  0900             ;LEFT_EYE_PIXLES=FRONT_EYE_PIXELS+64
00013  0900             ;RIGHT_EYE_PIXLES=LEFT_EYE_PIXLES+64
00014  0900             PROGRAM_START 
00015  0900  20 25 09              JSR SETUP_INTERRUPT
00016  0903  20 6F 09              JSR LOAD_FRONT_EYE_DATA
00017  0906  20 7B 09              JSR LOAD_LEFT_EYE_DATA
00018  0909  20 87 09              JSR LOAD_RIGHT_EYE_DATA
00019  090C             
00020  090C                        ; SET SPRITE POINTERS
00021  090C                        ; LDA #$2E80/64
00022  090C                        ; STA $07F8
00023  090C  20 51 09              JSR LOOK_STRAIGHT_BEGINNING
00024  090F             
00025  090F  A9 01                 LDA #1
00026  0911  20 A3 09              JSR SET_SPRITE_COLOR
00027  0914             
00028  0914  A9 2D                 LDA #45
00029  0916  20 93 09              JSR SET_X_LOCATION
00030  0919             
00031  0919  A9 3C                 LDA #60
00032  091B  20 9F 09              JSR SET_Y_LOCATION
00033  091E             
00034  091E                        
00035  091E                        ; LDA #$2F00/64
00036  091E                        ; STA $07F8
00037  091E             
00038  091E             
00039  091E                        ; LDA #RIGHT_EYE_PIXLES/64
00040  091E                        ; STA $07FA
00041  091E             
00042  091E                        ; SHOW SPRITES
00043  091E  A9 01                 LDA #$0001
00044  0920  8D 15 D0              STA $D015
00045  0923             
00046  0923             
00047  0923             PROGRAM_END 
00048  0923  60                    RTS
00049  0924             
00050  0924  00         COUNTER    BYTE 00
00051  0925                        
00052  0925             ; SUB-ROUTINES
00053  0925             SETUP_INTERRUPT 
00054  0925  78                    SEI
00055  0926  A9 32                 LDA #<ANIMATION_ROUTINE
00056  0928  8D 14 03              STA $0314
00057  092B  A9 09                 LDA #>ANIMATION_ROUTINE
00058  092D  8D 15 03              STA $0315
00059  0930  58                    CLI
00060  0931  60                    RTS
00061  0932             
00062  0932             ANIMATION_ROUTINE 
00063  0932  AD 24 09              LDA COUNTER
00064  0935  69 01                 ADC #1
00065  0937  8D 24 09              STA COUNTER
00066  093A  C9 00                 CMP #0
00067  093C  F0 29                 BEQ LOOK_LEFT
00068  093E  C9 40                 CMP #64
00069  0940  F0 15                 BEQ LOOK_STRAIGHT
00070  0942  C9 80                 CMP #128
00071  0944  F0 19                 BEQ LOOK_RIGHT
00072  0946  C9 C0                 CMP #192
00073  0948  F0 0D                 BEQ LOOK_STRAIGHT
00074  094A  20 4D 09              JSR JUMP_TO_HANDLER
00075  094D             
00076  094D             JUMP_TO_HANDLER 
00077  094D  4C 31 EA              JMP $EA31
00078  0950  60                    RTS
00079  0951             
00080  0951             LOOK_STRAIGHT_BEGINNING 
00081  0951  A9 BA                 LDA #$2E80/64
00082  0953  8D F8 07              STA $07F8
00083  0956  60                    RTS
00084  0957             
00085  0957             LOOK_STRAIGHT 
00086  0957  A9 BA                 LDA #$2E80/64
00087  0959  8D F8 07              STA $07F8
00088  095C  20 4D 09              JSR JUMP_TO_HANDLER
00089  095F             
00090  095F             LOOK_RIGHT 
00091  095F  A9 E8                 LDA #$3A00/64
00092  0961  8D F8 07              STA $07F8
00093  0964  20 4D 09              JSR JUMP_TO_HANDLER
00094  0967             
00095  0967             LOOK_LEFT
00096  0967  A9 BC                 LDA #$2F00/64
00097  0969  8D F8 07              STA $07F8
00098  096C  20 4D 09              JSR JUMP_TO_HANDLER
00099  096F             
00100  096F             ;JUMP_TO_HANDLER
00101  096F             ;        JMP $EA31
00102  096F             
00103  096F             LOAD_FRONT_EYE_DATA 
00104  096F  A2 3F                 LDX #63
00105  0971             SPRITE_LOOP 
00106  0971  BD A7 09              LDA EYE_FRONT_DATA,X
00107  0974  9D 80 2E              STA $2E80,X
00108  0977  CA                    DEX
00109  0978  10 F7                 BPL SPRITE_LOOP
00110  097A  60                    RTS
00111  097B             
00112  097B             LOAD_LEFT_EYE_DATA 
00113  097B  A2 3F                 LDX #63
00114  097D             SPRITE_LOOP_LEFT 
00115  097D  BD E7 09              LDA EYE_LEFT_DATA,X
00116  0980  9D 00 2F              STA $2F00,X
00117  0983  CA                    DEX
00118  0984  10 F7                 BPL SPRITE_LOOP_LEFT
00119  0986  60                    RTS
00120  0987             
00121  0987             LOAD_RIGHT_EYE_DATA 
00122  0987  A2 3F                 LDX #63
00123  0989             SPRITE_LOOP_RIGHT 
00124  0989  BD 27 0A              LDA EYE_RIGHT_DATA,X
00125  098C  9D 00 3A              STA $3A00,X
00126  098F  CA                    DEX
00127  0990  10 F7                 BPL SPRITE_LOOP_RIGHT
00128  0992  60                    RTS
00129  0993             
00130  0993             SET_X_LOCATION 
00131  0993  8D 00 D0              STA $D000       ; X POSITION SPRITE #0 SET ON 44
00132  0996  AD 00 D0              LDA $D000       ; LOAD X-MSB
00133  0999  09 01                 ORA #%00000001  ; SET EXTRA BIT FOR SPRITE #5
00134  099B  8D 10 D0              STA $D010       ; WRITE X-MSB REGISTER
00135  099E  60                    RTS
00136  099F             
00137  099F             SET_Y_LOCATION 
00138  099F  8D 01 D0              STA $D001
00139  09A2  60                    RTS
00140  09A3             
00141  09A3             SET_SPRITE_COLOR 
00142  09A3  8D 27 D0              STA $D027
00143  09A6  60                    RTS
00144  09A7             
00145  09A7             EYE_FRONT_DATA 
00146  09A7             ; EYE_FRONT
00147  09A7  00 7E 00              BYTE $00,$7E,$00
00148  09AA  03 81 C0              BYTE $03,$81,$C0
00149  09AD  0C 7E 30              BYTE $0C,$7E,$30
00150  09B0  13 FF C8              BYTE $13,$FF,$C8
00151  09B3  2F FF F4              BYTE $2F,$FF,$F4
00152  09B6  2F FF F4              BYTE $2F,$FF,$F4
00153  09B9  5F FF FA              BYTE $5F,$FF,$FA
00154  09BC  5F C3 FA              BYTE $5F,$C3,$FA
00155  09BF  5F 81 FA              BYTE $5F,$81,$FA
00156  09C2  BF 00 FD              BYTE $BF,$00,$FD
00157  09C5  BF 00 FD              BYTE $BF,$00,$FD
00158  09C8  BF 00 FD              BYTE $BF,$00,$FD
00159  09CB  5F 81 FA              BYTE $5F,$81,$FA
00160  09CE  5F C3 FA              BYTE $5F,$C3,$FA
00161  09D1  5F FF FA              BYTE $5F,$FF,$FA
00162  09D4  2F FF F4              BYTE $2F,$FF,$F4
00163  09D7  2F FF F4              BYTE $2F,$FF,$F4
00164  09DA  13 FF C8              BYTE $13,$FF,$C8
00165  09DD  0C 7E 30              BYTE $0C,$7E,$30
00166  09E0  03 81 C0              BYTE $03,$81,$C0
00167  09E3  00 7E 00              BYTE $00,$7E,$00
00168  09E6  00                    BYTE $00
00169  09E7             
00170  09E7             EYE_LEFT_DATA 
00171  09E7             ; EYE_LEFT
00172  09E7  00 7E 00              BYTE $00,$7E,$00
00173  09EA  03 81 C0              BYTE $03,$81,$C0
00174  09ED  0C 7E 30              BYTE $0C,$7E,$30
00175  09F0  13 FF C8              BYTE $13,$FF,$C8
00176  09F3  2F FF F4              BYTE $2F,$FF,$F4
00177  09F6  2F FF F4              BYTE $2F,$FF,$F4
00178  09F9  5F FF FA              BYTE $5F,$FF,$FA
00179  09FC  5C 7F FA              BYTE $5C,$7F,$FA
00180  09FF  58 3F FA              BYTE $58,$3F,$FA
00181  0A02  B8 3F FD              BYTE $B8,$3F,$FD
00182  0A05  B8 3F FD              BYTE $B8,$3F,$FD
00183  0A08  B8 3F FD              BYTE $B8,$3F,$FD
00184  0A0B  58 3F FA              BYTE $58,$3F,$FA
00185  0A0E  5C 7F FA              BYTE $5C,$7F,$FA
00186  0A11  5F FF FA              BYTE $5F,$FF,$FA
00187  0A14  2F FF F4              BYTE $2F,$FF,$F4
00188  0A17  2F FF F4              BYTE $2F,$FF,$F4
00189  0A1A  13 FF C8              BYTE $13,$FF,$C8
00190  0A1D  0C 7E 30              BYTE $0C,$7E,$30
00191  0A20  03 81 C0              BYTE $03,$81,$C0
00192  0A23  00 7E 00              BYTE $00,$7E,$00
00193  0A26  00                    BYTE $00
00194  0A27             
00195  0A27             EYE_RIGHT_DATA 
00196  0A27             ; EYE RIGHT
00197  0A27  00 7E 00              BYTE $00,$7E,$00
00198  0A2A  03 81 C0              BYTE $03,$81,$C0
00199  0A2D  0C 7E 30              BYTE $0C,$7E,$30
00200  0A30  13 FF C8              BYTE $13,$FF,$C8
00201  0A33  2F FF F4              BYTE $2F,$FF,$F4
00202  0A36  2F FF F4              BYTE $2F,$FF,$F4
00203  0A39  5F FF FA              BYTE $5F,$FF,$FA
00204  0A3C  5F FE 3A              BYTE $5F,$FE,$3A
00205  0A3F  5F FC 1A              BYTE $5F,$FC,$1A
00206  0A42  BF FC 1D              BYTE $BF,$FC,$1D
00207  0A45  BF FC 1D              BYTE $BF,$FC,$1D
00208  0A48  BF FC 1D              BYTE $BF,$FC,$1D
00209  0A4B  5F FC 1A              BYTE $5F,$FC,$1A
00210  0A4E  5F FE 3A              BYTE $5F,$FE,$3A
00211  0A51  5F FF FA              BYTE $5F,$FF,$FA
00212  0A54  2F FF F4              BYTE $2F,$FF,$F4
00213  0A57  2F FF F4              BYTE $2F,$FF,$F4
00214  0A5A  13 FF C8              BYTE $13,$FF,$C8
00215  0A5D  0C 7E 30              BYTE $0C,$7E,$30
00216  0A60  03 81 C0              BYTE $03,$81,$C0
00217  0A63  00 7E 00              BYTE $00,$7E,$00
00218  0A66  00                    BYTE $00
00219  0A67             
00220  0A67             

******* 22 Label(s) *******
ANIMATION_ROUTINE = $0932 
COUNTER = $0924 
EYE_FRONT_DATA = $09A7 
EYE_LEFT_DATA = $09E7 
EYE_RIGHT_DATA = $0A27 
JUMP_TO_HANDLER = $094D 
LOAD_FRONT_EYE_DATA = $096F 
LOAD_LEFT_EYE_DATA = $097B 
LOAD_RIGHT_EYE_DATA = $0987 
LOOK_LEFT = $0967 
LOOK_RIGHT = $095F 
LOOK_STRAIGHT = $0957 
LOOK_STRAIGHT_BEGINNING = $0951 
PROGRAM_END = $0923 
PROGRAM_START = $0900 
SET_SPRITE_COLOR = $09A3 
SET_X_LOCATION = $0993 
SET_Y_LOCATION = $099F 
SETUP_INTERRUPT = $0925 
sprite_loop = $0971 
sprite_loop_left = $097D 
sprite_loop_right = $0989 

******* 2 Unused label(s) *******
PROGRAM_END
PROGRAM_START

******* 1 Variable(s) *******
tgt_c64  = $0001
******* 1 Unused variables(s) *******
tgt_c64

